; Function Attrs: mustprogress uwtable
define void @_ZNK6casadi4Qrqp8set_workEPvRPPKdRPPdRPxRS6_(ptr noundef nonnull align 8 dereferenceable(1660) %0, ptr noundef %1, ptr noundef nonnull align 8 dereferenceable(8) %2, ptr noundef nonnull align 8 dereferenceable(8) %3, ptr noundef nonnull align 8 dereferenceable(8) %4, ptr noundef nonnull align 8 dereferenceable(8) %5) unnamed_addr #3 align 2 {
  tail call void @_ZNK6casadi5Conic8set_workEPvRPPKdRPPdRPxRS6_(ptr noundef nonnull align 8 dereferenceable(1472) %0, ptr noundef %1, ptr noundef nonnull align 8 dereferenceable(8) %2, ptr noundef nonnull align 8 dereferenceable(8) %3, ptr noundef nonnull align 8 dereferenceable(8) %4, ptr noundef nonnull align 8 dereferenceable(8) %5)
  %7 = getelementptr inbounds i8, ptr %0, i64 1472
  %8 = getelementptr inbounds i8, ptr %1, i64 192
  store ptr %7, ptr %8, align 8
  %9 = getelementptr inbounds i8, ptr %1, i64 56
  %10 = getelementptr inbounds i8, ptr %1, i64 200
  store ptr %9, ptr %10, align 8
  tail call void @_ZN6casadi16casadi_qrqp_initIdEEvPNS_16casadi_qrqp_dataIT_EEPPxPPS2_(ptr noundef nonnull %8, ptr noundef nonnull %4, ptr noundef nonnull %5)
  ret void
}